; Function Attrs: nounwind uwtable
define dso_local range(i64 0, 2) i64 @texticnlike(ptr noundef readonly captures(none) %0) local_unnamed_addr #0 {
  %2 = getelementptr inbounds nuw i8, ptr %0, i64 32
  %3 = load i64, ptr %2, align 8
  %4 = inttoptr i64 %3 to ptr
  %5 = tail call ptr @pg_detoast_datum_packed(ptr noundef %4) #7
  %6 = getelementptr inbounds nuw i8, ptr %0, i64 48
  %7 = load i64, ptr %6, align 8
  %8 = inttoptr i64 %7 to ptr
  %9 = tail call ptr @pg_detoast_datum_packed(ptr noundef %8) #7
  %10 = getelementptr inbounds nuw i8, ptr %0, i64 24
  %11 = load i32, ptr %10, align 8
  %12 = tail call fastcc i32 @Generic_Text_IC_like(ptr noundef %5, ptr noundef %9, i32 noundef %11)
  %13 = icmp ne i32 %12, 1
  %14 = zext i1 %13 to i64
  ret i64 %14
}